-----BEGIN PRIVATE KEY-----
MIIEvwIBADANBgkqhkiG9w0BAQEFAASCBKkwggSlAgEAAoIBAQD96wrz/0TH+5gB
AtM4T7svTpIRI+fQIsd2lWx6i1xLprSHZtIBzsyoZPtkXHveNF9vcRrR56PQeBiO
dOZz8LsiaceLHjOHOQhaEzqs8n4FliGFc45QLfX7OhqU1t47cY0I/hgIJQrVObyZ
DzWwHGWJEykVQ8EJtWtW3C8o3GE8J+ZfNrUYg5QegYsd09COsSu3nqGNmMiRvUuf
FVv3TZ8UI5C7vnBc4P2lhWZDwVX5hdrV1hArsKLni7J/obh0nLlb6S13G7ne4M0F
o4riEMu215m+MawnjvF1JHCMdySZzXWLyzMXJ9Ct3UMQTDngDrovje2jOdehguvD
BEW0OtjrAgMBAAECggEBAJPy4fztnfwQQq9EICJNgrm7xCwsiaOiwCn+Qqjcjrid
t861QGRBRMpRnJELujjstzbN5lyr5a1QbK6EusqPV9pjXBtZS5jcyFsDnUqsOHW0
1m9Vt3RMc2kgn+Bdmjt0nELDGumT+83lyFg+nn+w7BCEk4mKYu3vQU3pGalrT1Sm
md1Z5Vr6qqlE7Ae5nOeyzV0GTp9afQXdkw4PgnaoTQMq9J1y1hSNmSyUuPskKWvz
apVg8EpSngsQXju/VcUOdA5FKZAhAh75u3lgwCej8isy4XdXXBWBWcgsRoV/syZj
QrA/uPaYgiwB+kFjPJ3N1YgoR4/9N5K0IzVRc+npviECgYEA/9HJKGG4/d24hnTc
AKGYzWqekEu9q8IUtMSzURM9TXoI1udjSHbTOYqBmBt/znu7ObFInr4aFM2weI9w
kyvubqIEt/Y2jkwILLQRedDOgIsrarWaOOkcjxQYRtUWtvfKfzNjQ26byYV/lqEi
dfc6QznhD+gWXkWqozcnEJJ2pqkCgYEA/hjp3UpjF7HijUU26AL6piRuAJ7AvIMb
ozssBJnzyeOiZ0ls7Lg2ur7ZPNd2+8B6QgwqnVFN70IGLVIL/sKLjr2H/4fggKXY
rUbbJMm9XhF6yLOo0UTRxiNiK8TuRIldZHSgkExUdbeQHOe+xNq/mzAz4xsYRJJg
mopN6EtqA3MCgYEA2VziI9qsuaAb+rrud+bWk6uFISwJ9BfLSjFb/4ZubxdCzX77
4AV+wgSKyriK5uJBGeslviPeu1BuInIWgCYyyHQHuFuOzWeTBpDVzIB8BcK6WEgH
y1Ve+79iRUUnsL1opJ4AOLqRyjARUeaGBl/TdG2IauCTqPRe4aGqIq2f/UkCgYAH
fpqfQUts7n09J3Z4H2ZfMiHgeM48gS12gg9JT3UmVkV7AGprDP/oQCrOJZjH0iSJ
ACzdmQFQdkUSXyIlcH2HR0XUnqBbiwi6C6X5Ds48EQ3rD4mCKqJ5Up/ZpKRWdyq/
BMWbm/S9yB1DDP7OdZlDLYfKQglUNHEO/ddQa7EDywKBgQCQopIviLDUzZutSVXP
MuZiXWUk52WfyA5GuKTtYbDE4Zr9kxEY4RH2bsqQXEIU2Ql5agQ7nntYGQhEpB0u
8rKQlxix/bHYuWEOKeaNfA4PUOo5LipJPVs0/1bXnfRD4r3V5SXI6TlmrTXtQ9LC
DPl5wZ5pYoIBNu1HW/0wKSnnOw==
-----END PRIVATE KEY-----
Certificate:
    Data:
        Version: 3 (0x2)
        Serial Number: 1 (0x1)
    Signature Algorithm: sha256WithRSAEncryption
        Issuer: CN=clay-TECRA-R850
        Validity
            Not Before: Nov 21 18:22:41 2017 GMT
            Not After : Nov 21 18:22:41 2018 GMT
        Subject: CN=mkahawa
        Subject Public Key Info:
            Public Key Algorithm: rsaEncryption
                Public-Key: (2048 bit)
                Modulus:
                    00:fd:eb:0a:f3:ff:44:c7:fb:98:01:02:d3:38:4f:
                    bb:2f:4e:92:11:23:e7:d0:22:c7:76:95:6c:7a:8b:
                    5c:4b:a6:b4:87:66:d2:01:ce:cc:a8:64:fb:64:5c:
                    7b:de:34:5f:6f:71:1a:d1:e7:a3:d0:78:18:8e:74:
                    e6:73:f0:bb:22:69:c7:8b:1e:33:87:39:08:5a:13:
                    3a:ac:f2:7e:05:96:21:85:73:8e:50:2d:f5:fb:3a:
                    1a:94:d6:de:3b:71:8d:08:fe:18:08:25:0a:d5:39:
                    bc:99:0f:35:b0:1c:65:89:13:29:15:43:c1:09:b5:
                    6b:56:dc:2f:28:dc:61:3c:27:e6:5f:36:b5:18:83:
                    94:1e:81:8b:1d:d3:d0:8e:b1:2b:b7:9e:a1:8d:98:
                    c8:91:bd:4b:9f:15:5b:f7:4d:9f:14:23:90:bb:be:
                    70:5c:e0:fd:a5:85:66:43:c1:55:f9:85:da:d5:d6:
                    10:2b:b0:a2:e7:8b:b2:7f:a1:b8:74:9c:b9:5b:e9:
                    2d:77:1b:b9:de:e0:cd:05:a3:8a:e2:10:cb:b6:d7:
                    99:be:31:ac:27:8e:f1:75:24:70:8c:77:24:99:cd:
                    75:8b:cb:33:17:27:d0:ad:dd:43:10:4c:39:e0:0e:
                    ba:2f:8d:ed:a3:39:d7:a1:82:eb:c3:04:45:b4:3a:
                    d8:eb
                Exponent: 65537 (0x10001)
        X509v3 extensions:
            X509v3 Basic Constraints: 
                CA:FALSE
            Netscape Comment: 
                OpenSSL Generated Certificate
            X509v3 Subject Key Identifier: 
                AA:57:A8:3D:E5:AF:C9:03:45:22:BD:44:30:3F:C7:07:D0:95:88:9D
            X509v3 Authority Key Identifier: 
                keyid:C7:3E:E7:A4:F5:15:B6:14:18:E4:66:66:60:C1:B2:23:31:F8:9C:AD

    Signature Algorithm: sha256WithRSAEncryption
         77:b0:62:0e:1e:93:ae:b8:b1:5f:98:02:9e:ea:de:89:94:2d:
         28:e9:0b:9a:8e:3e:77:65:d7:a0:d2:76:29:65:f1:55:4e:b7:
         a6:5b:ad:1b:a0:1a:b1:8b:fe:42:f8:e0:03:b6:73:fc:75:01:
         99:3b:6f:96:a8:f2:ed:68:6d:b5:74:55:d7:8a:2a:11:a9:31:
         b5:fa:cb:1a:2e:18:06:21:a1:10:68:9a:4b:b0:d7:86:81:b7:
         24:49:a5:2f:bf:ba:41:4c:7c:11:b3:3f:66:dd:9f:ad:55:f8:
         91:98:bc:6c:88:f0:f4:2b:14:8e:96:5e:93:e2:22:16:14:2f:
         fc:a8:93:d0:3f:16:52:72:fd:07:f2:ed:d0:b0:9c:fe:1c:0b:
         f0:cf:97:d6:c1:2e:ea:87:98:19:0f:b2:ad:69:08:0b:a6:de:
         19:34:50:55:92:8c:ab:78:54:c6:d8:98:43:99:26:0c:84:f1:
         b2:f0:79:33:4d:fe:4a:6e:db:a4:40:23:36:cf:6c:12:c4:18:
         b0:0c:40:40:e4:b6:2c:73:1b:29:1f:7b:4d:f9:5e:c7:f4:b9:
         36:d1:5b:e1:72:4e:6b:1d:4e:c6:0f:82:e3:92:7d:42:6b:ba:
         b5:26:ca:ba:b7:62:98:40:b9:9b:c9:82:5a:e6:c7:e2:bf:6b:
         c2:ab:45:5a
-----BEGIN CERTIFICATE-----
MIIDIjCCAgqgAwIBAgIBATANBgkqhkiG9w0BAQsFADAaMRgwFgYDVQQDDA9jbGF5
LVRFQ1JBLVI4NTAwHhcNMTcxMTIxMTgyMjQxWhcNMTgxMTIxMTgyMjQxWjASMRAw
DgYDVQQDDAdta2FoYXdhMIIBIjANBgkqhkiG9w0BAQEFAAOCAQ8AMIIBCgKCAQEA
/esK8/9Ex/uYAQLTOE+7L06SESPn0CLHdpVseotcS6a0h2bSAc7MqGT7ZFx73jRf
b3Ea0eej0HgYjnTmc/C7ImnHix4zhzkIWhM6rPJ+BZYhhXOOUC31+zoalNbeO3GN
CP4YCCUK1Tm8mQ81sBxliRMpFUPBCbVrVtwvKNxhPCfmXza1GIOUHoGLHdPQjrEr
t56hjZjIkb1LnxVb902fFCOQu75wXOD9pYVmQ8FV+YXa1dYQK7Ci54uyf6G4dJy5
W+ktdxu53uDNBaOK4hDLtteZvjGsJ47xdSRwjHckmc11i8szFyfQrd1DEEw54A66
L43toznXoYLrwwRFtDrY6wIDAQABo3sweTAJBgNVHRMEAjAAMCwGCWCGSAGG+EIB
DQQfFh1PcGVuU1NMIEdlbmVyYXRlZCBDZXJ0aWZpY2F0ZTAdBgNVHQ4EFgQUqleo
PeWvyQNFIr1EMD/HB9CViJ0wHwYDVR0jBBgwFoAUxz7npPUVthQY5GZmYMGyIzH4
nK0wDQYJKoZIhvcNAQELBQADggEBAHewYg4ek664sV+YAp7q3omULSjpC5qOPndl
16DSdill8VVOt6ZbrRugGrGL/kL44AO2c/x1AZk7b5ao8u1obbV0VdeKKhGpMbX6
yxouGAYhoRBomkuw14aBtyRJpS+/ukFMfBGzP2bdn61V+JGYvGyI8PQrFI6WXpPi
IhYUL/yok9A/FlJy/Qfy7dCwnP4cC/DPl9bBLuqHmBkPsq1pCAum3hk0UFWSjKt4
VMbYmEOZJgyE8bLweTNN/kpu26RAIzbPbBLEGLAMQEDktixzGykfe035Xsf0uTbR
W+FyTmsdTsYPguOSfUJrurUmyrq3YphAuZvJglrmx+K/a8KrRVo=
-----END CERTIFICATE-----
